target datalayout = "e-m:e-p270:32:32-p271:32:32-p272:64:64-i64:64-i128:128-f80:128-n8:16:32:64-S128"
target triple = "x86_64-unknown-linux-gnu"

%struct.QemuMutex = type { %union.pthread_mutex_t, i8 }
%union.pthread_mutex_t = type { %struct.__pthread_mutex_s }
%struct.__pthread_mutex_s = type { i32, i32, i32, i32, i32, i16, i16, %struct.__pthread_internal_list }
%struct.__pthread_internal_list = type { ptr, ptr }
%struct.QTailQLink = type { ptr, ptr }
%struct.MirrorBlockJob = type { %struct.BlockJob, ptr, ptr, ptr, ptr, ptr, ptr, ptr, i8, i32, i8, i32, i32, i32, i8, i8, i64, i64, i64, ptr, ptr, ptr, ptr, %struct.anon.14, i32, i64, ptr, i32, i64, %union.anon.15, i32, i8, i32, i32, i8, i32, i64, i8, i8 }
%struct.BlockJob = type { %struct.Job, i32, i64, %struct.RateLimit, ptr, %struct.Notifier, %struct.Notifier, %struct.Notifier, %struct.Notifier, %struct.Notifier, ptr }
%struct.Job = type { ptr, ptr, ptr, i8, i8, ptr, ptr, %struct.ProgressMeter, ptr, i32, i32, %struct.QEMUTimer, i32, i8, i8, i8, i8, i8, i8, i32, ptr, %struct.NotifierList, %struct.NotifierList, %struct.NotifierList, %struct.NotifierList, %struct.NotifierList, %struct.anon.11, ptr, %struct.anon.12 }
%struct.ProgressMeter = type { i64, i64, %struct.QemuMutex }
%struct.QEMUTimer = type { i64, ptr, ptr, ptr, ptr, i32, i32 }
%struct.NotifierList = type { %struct.anon.10 }
%struct.anon.10 = type { ptr }
%struct.anon.11 = type { ptr, ptr }
%struct.anon.12 = type { ptr, ptr }
%struct.RateLimit = type { %struct.QemuMutex, i64, i64, i64, i64, i64 }
%struct.Notifier = type { ptr, %struct.anon.13 }
%struct.anon.13 = type { ptr, ptr }
%struct.anon.14 = type { ptr, ptr }
%union.anon.15 = type { %struct.QTailQLink }
%struct.QemuLockable = type { ptr, ptr, ptr }

@.str.1 = private unnamed_addr constant [23 x i8] c"../qemu/block/mirror.c\00", align 1
@job_mutex = external global %struct.QemuMutex, align 8
@__func__.mirror_complete = private unnamed_addr constant [16 x i8] c"mirror_complete\00", align 1
@.str.59 = private unnamed_addr constant [46 x i8] c"The active block job '%s' cannot be completed\00", align 1
@.str.60 = private unnamed_addr constant [25 x i8] c"Node name '%s' not found\00", align 1
@.str.61 = private unnamed_addr constant [45 x i8] c"block device is in use by block-job-complete\00", align 1

; Function Attrs: nounwind sspstrong uwtable
define internal void @qemu_lockable_unlock(ptr noundef %x) #0 {
entry:
  %x.addr = alloca ptr, align 8
  store ptr %x, ptr %x.addr, align 8
  %0 = load ptr, ptr %x.addr, align 8
  %unlock = getelementptr inbounds %struct.QemuLockable, ptr %0, i32 0, i32 2
  %1 = load ptr, ptr %unlock, align 8
  %2 = load ptr, ptr %x.addr, align 8
  %object = getelementptr inbounds %struct.QemuLockable, ptr %2, i32 0, i32 0
  %3 = load ptr, ptr %object, align 8
  call void %1(ptr noundef %3)
  ret void
}

; Function Attrs: nounwind sspstrong uwtable
define internal void @glib_autoptr_clear_QemuLockable(ptr noundef %_ptr) #0 {
entry:
  %_ptr.addr = alloca ptr, align 8
  store ptr %_ptr, ptr %_ptr.addr, align 8
  %0 = load ptr, ptr %_ptr.addr, align 8
  %tobool = icmp ne ptr %0, null
  br i1 %tobool, label %if.then, label %if.end

if.then:                                          ; preds = %entry
  %1 = load ptr, ptr %_ptr.addr, align 8
  call void @qemu_lockable_auto_unlock(ptr noundef %1)
  br label %if.end

if.end:                                           ; preds = %if.then, %entry
  ret void
}

; Function Attrs: nounwind sspstrong uwtable
define internal void @qemu_lockable_lock(ptr noundef %x) #0 {
entry:
  %x.addr = alloca ptr, align 8
  store ptr %x, ptr %x.addr, align 8
  %0 = load ptr, ptr %x.addr, align 8
  %lock = getelementptr inbounds %struct.QemuLockable, ptr %0, i32 0, i32 1
  %1 = load ptr, ptr %lock, align 8
  %2 = load ptr, ptr %x.addr, align 8
  %object = getelementptr inbounds %struct.QemuLockable, ptr %2, i32 0, i32 0
  %3 = load ptr, ptr %object, align 8
  call void %1(ptr noundef %3)
  ret void
}

; Function Attrs: nounwind sspstrong uwtable
define internal void @qemu_lockable_auto_unlock(ptr noundef %x) #0 {
entry:
  %x.addr = alloca ptr, align 8
  store ptr %x, ptr %x.addr, align 8
  %0 = load ptr, ptr %x.addr, align 8
  %tobool = icmp ne ptr %0, null
  br i1 %tobool, label %if.then, label %if.end

if.then:                                          ; preds = %entry
  %1 = load ptr, ptr %x.addr, align 8
  call void @qemu_lockable_unlock(ptr noundef %1)
  br label %if.end

if.end:                                           ; preds = %if.then, %entry
  ret void
}

; Function Attrs: nounwind sspstrong uwtable
define internal void @glib_autoptr_cleanup_QemuLockable(ptr noundef %_ptr) #0 {
entry:
  %_ptr.addr = alloca ptr, align 8
  store ptr %_ptr, ptr %_ptr.addr, align 8
  %0 = load ptr, ptr %_ptr.addr, align 8
  %1 = load ptr, ptr %0, align 8
  call void @glib_autoptr_clear_QemuLockable(ptr noundef %1)
  ret void
}

; Function Attrs: nounwind sspstrong uwtable
define internal ptr @qemu_lockable_auto_lock(ptr noundef %x) #0 {
entry:
  %x.addr = alloca ptr, align 8
  store ptr %x, ptr %x.addr, align 8
  %0 = load ptr, ptr %x.addr, align 8
  call void @qemu_lockable_lock(ptr noundef %0)
  %1 = load ptr, ptr %x.addr, align 8
  ret ptr %1
}

; Function Attrs: nounwind sspstrong uwtable
define internal void @mirror_complete(ptr noundef %job, ptr noundef %errp) #0 {
entry:
  %job.addr = alloca ptr, align 8
  %errp.addr = alloca ptr, align 8
  %s = alloca ptr, align 8
  %__mptr = alloca ptr, align 8
  %tmp = alloca ptr, align 8
  %replace_aio_context = alloca ptr, align 8
  %qemu_lockable_auto31 = alloca ptr, align 8
  %.compoundliteral = alloca %struct.QemuLockable, align 8
  store ptr %job, ptr %job.addr, align 8
  store ptr %errp, ptr %errp.addr, align 8
  %0 = load ptr, ptr %job.addr, align 8
  store ptr %0, ptr %__mptr, align 8
  %1 = load ptr, ptr %__mptr, align 8
  %add.ptr = getelementptr i8, ptr %1, i64 0
  store ptr %add.ptr, ptr %tmp, align 8
  %2 = load ptr, ptr %tmp, align 8
  store ptr %2, ptr %s, align 8
  %3 = load ptr, ptr %job.addr, align 8
  %call = call zeroext i1 @job_is_ready(ptr noundef %3)
  br i1 %call, label %if.end, label %if.then

if.then:                                          ; preds = %entry
  %4 = load ptr, ptr %errp.addr, align 8
  %5 = load ptr, ptr %job.addr, align 8
  %id = getelementptr inbounds %struct.Job, ptr %5, i32 0, i32 0
  %6 = load ptr, ptr %id, align 8
  call void (ptr, ptr, i32, ptr, ptr, ...) @error_setg_internal(ptr noundef %4, ptr noundef @.str.1, i32 noundef 1188, ptr noundef @__func__.mirror_complete, ptr noundef @.str.59, ptr noundef %6)
  br label %for.end

if.end:                                           ; preds = %entry
  %7 = load ptr, ptr %s, align 8
  %replaces = getelementptr inbounds %struct.MirrorBlockJob, ptr %7, i32 0, i32 5
  %8 = load ptr, ptr %replaces, align 8
  %tobool = icmp ne ptr %8, null
  br i1 %tobool, label %if.then1, label %if.end14

if.then1:                                         ; preds = %if.end
  %9 = load ptr, ptr %s, align 8
  %replaces2 = getelementptr inbounds %struct.MirrorBlockJob, ptr %9, i32 0, i32 5
  %10 = load ptr, ptr %replaces2, align 8
  %call3 = call ptr @bdrv_find_node(ptr noundef %10)
  %11 = load ptr, ptr %s, align 8
  %to_replace = getelementptr inbounds %struct.MirrorBlockJob, ptr %11, i32 0, i32 6
  store ptr %call3, ptr %to_replace, align 8
  %12 = load ptr, ptr %s, align 8
  %to_replace4 = getelementptr inbounds %struct.MirrorBlockJob, ptr %12, i32 0, i32 6
  %13 = load ptr, ptr %to_replace4, align 8
  %tobool5 = icmp ne ptr %13, null
  br i1 %tobool5, label %if.end8, label %if.then6

if.then6:                                         ; preds = %if.then1
  %14 = load ptr, ptr %errp.addr, align 8
  %15 = load ptr, ptr %s, align 8
  %replaces7 = getelementptr inbounds %struct.MirrorBlockJob, ptr %15, i32 0, i32 5
  %16 = load ptr, ptr %replaces7, align 8
  call void (ptr, ptr, i32, ptr, ptr, ...) @error_setg_internal(ptr noundef %14, ptr noundef @.str.1, i32 noundef 1198, ptr noundef @__func__.mirror_complete, ptr noundef @.str.60, ptr noundef %16)
  br label %for.end

if.end8:                                          ; preds = %if.then1
  %17 = load ptr, ptr %s, align 8
  %to_replace9 = getelementptr inbounds %struct.MirrorBlockJob, ptr %17, i32 0, i32 6
  %18 = load ptr, ptr %to_replace9, align 8
  %call10 = call ptr @bdrv_get_aio_context(ptr noundef %18)
  store ptr %call10, ptr %replace_aio_context, align 8
  %19 = load ptr, ptr %replace_aio_context, align 8
  call void @aio_context_acquire(ptr noundef %19)
  %20 = load ptr, ptr %s, align 8
  %replace_blocker = getelementptr inbounds %struct.MirrorBlockJob, ptr %20, i32 0, i32 7
  call void (ptr, ptr, i32, ptr, ptr, ...) @error_setg_internal(ptr noundef %replace_blocker, ptr noundef @.str.1, i32 noundef 1207, ptr noundef @__func__.mirror_complete, ptr noundef @.str.61)
  %21 = load ptr, ptr %s, align 8
  %to_replace11 = getelementptr inbounds %struct.MirrorBlockJob, ptr %21, i32 0, i32 6
  %22 = load ptr, ptr %to_replace11, align 8
  %23 = load ptr, ptr %s, align 8
  %replace_blocker12 = getelementptr inbounds %struct.MirrorBlockJob, ptr %23, i32 0, i32 7
  %24 = load ptr, ptr %replace_blocker12, align 8
  call void @bdrv_op_block_all(ptr noundef %22, ptr noundef %24)
  %25 = load ptr, ptr %s, align 8
  %to_replace13 = getelementptr inbounds %struct.MirrorBlockJob, ptr %25, i32 0, i32 6
  %26 = load ptr, ptr %to_replace13, align 8
  call void @bdrv_ref(ptr noundef %26)
  %27 = load ptr, ptr %replace_aio_context, align 8
  call void @aio_context_release(ptr noundef %27)
  br label %if.end14

if.end14:                                         ; preds = %if.end8, %if.end
  %28 = load ptr, ptr %s, align 8
  %should_complete = getelementptr inbounds %struct.MirrorBlockJob, ptr %28, i32 0, i32 15
  store i8 1, ptr %should_complete, align 1
  %object = getelementptr inbounds %struct.QemuLockable, ptr %.compoundliteral, i32 0, i32 0
  store ptr @job_mutex, ptr %object, align 8
  %lock = getelementptr inbounds %struct.QemuLockable, ptr %.compoundliteral, i32 0, i32 1
  store ptr @qemu_mutex_lock, ptr %lock, align 8
  %unlock = getelementptr inbounds %struct.QemuLockable, ptr %.compoundliteral, i32 0, i32 2
  store ptr @qemu_mutex_unlock, ptr %unlock, align 8
  %call15 = call ptr @qemu_lockable_auto_lock(ptr noundef %.compoundliteral)
  store ptr %call15, ptr %qemu_lockable_auto31, align 8
  br label %for.cond

for.cond:                                         ; preds = %for.inc, %if.end14
  %29 = load ptr, ptr %qemu_lockable_auto31, align 8
  %tobool16 = icmp ne ptr %29, null
  br i1 %tobool16, label %for.body, label %for.cond.cleanup

for.cond.cleanup:                                 ; preds = %for.cond
  call void @glib_autoptr_cleanup_QemuLockable(ptr noundef %qemu_lockable_auto31)
  br label %for.end

for.body:                                         ; preds = %for.cond
  %30 = load ptr, ptr %job.addr, align 8
  %paused = getelementptr inbounds %struct.Job, ptr %30, i32 0, i32 14
  %31 = load i8, ptr %paused, align 1
  %tobool17 = trunc i8 %31 to i1
  br i1 %tobool17, label %if.end19, label %if.then18

if.then18:                                        ; preds = %for.body
  %32 = load ptr, ptr %job.addr, align 8
  call void @job_enter_cond_locked(ptr noundef %32, ptr noundef null)
  br label %if.end19

if.end19:                                         ; preds = %if.then18, %for.body
  br label %for.inc

for.inc:                                          ; preds = %if.end19
  %33 = load ptr, ptr %qemu_lockable_auto31, align 8
  call void @qemu_lockable_auto_unlock(ptr noundef %33)
  store ptr null, ptr %qemu_lockable_auto31, align 8
  br label %for.cond, !llvm.loop !11

for.end:                                          ; preds = %for.cond.cleanup, %if.then6, %if.then
  ret void
}