; Function Attrs: nounwind sspstrong uwtable
define internal void @mirror_complete(ptr noundef %job, ptr noundef %errp) #0 {
entry:
  %call = tail call zeroext i1 @job_is_ready(ptr noundef %job) #12
  br i1 %call, label %if.end, label %if.then

if.then:                                          ; preds = %entry
  %0 = load ptr, ptr %job, align 8
  tail call void (ptr, ptr, i32, ptr, ptr, ...) @error_setg_internal(ptr noundef %errp, ptr noundef nonnull @.str.1, i32 noundef 1188, ptr noundef nonnull @__func__.mirror_complete, ptr noundef nonnull @.str.59, ptr noundef %0) #12
  br label %for.end

if.end:                                           ; preds = %entry
  %replaces = getelementptr inbounds nuw i8, ptr %job, i64 552
  %1 = load ptr, ptr %replaces, align 8
  %tobool.not = icmp eq ptr %1, null
  br i1 %tobool.not, label %for.body.us, label %if.then1

if.then1:                                         ; preds = %if.end
  %call3 = tail call ptr @bdrv_find_node(ptr noundef nonnull %1) #12
  %to_replace = getelementptr inbounds nuw i8, ptr %job, i64 560
  store ptr %call3, ptr %to_replace, align 8
  %tobool5.not = icmp eq ptr %call3, null
  br i1 %tobool5.not, label %if.then6, label %if.end8

if.then6:                                         ; preds = %if.then1
  %2 = load ptr, ptr %replaces, align 8
  tail call void (ptr, ptr, i32, ptr, ptr, ...) @error_setg_internal(ptr noundef %errp, ptr noundef nonnull @.str.1, i32 noundef 1198, ptr noundef nonnull @__func__.mirror_complete, ptr noundef nonnull @.str.60, ptr noundef %2) #12
  br label %for.end

if.end8:                                          ; preds = %if.then1
  %call10 = tail call ptr @bdrv_get_aio_context(ptr noundef nonnull %call3) #12
  tail call void @aio_context_acquire(ptr noundef %call10) #12
  %replace_blocker = getelementptr inbounds nuw i8, ptr %job, i64 568
  tail call void (ptr, ptr, i32, ptr, ptr, ...) @error_setg_internal(ptr noundef nonnull %replace_blocker, ptr noundef nonnull @.str.1, i32 noundef 1207, ptr noundef nonnull @__func__.mirror_complete, ptr noundef nonnull @.str.61) #12
  %3 = load ptr, ptr %to_replace, align 8
  %4 = load ptr, ptr %replace_blocker, align 8
  tail call void @bdrv_op_block_all(ptr noundef %3, ptr noundef %4) #12
  %5 = load ptr, ptr %to_replace, align 8
  tail call void @bdrv_ref(ptr noundef %5) #12
  tail call void @aio_context_release(ptr noundef %call10) #12
  br label %for.body.us

for.body.us:                                      ; preds = %if.end, %if.end8
  %should_complete = getelementptr inbounds nuw i8, ptr %job, i64 601
  store i8 1, ptr %should_complete, align 1
  %6 = load atomic i64, ptr @qemu_mutex_lock_func monotonic, align 8
  %7 = inttoptr i64 %6 to ptr
  tail call void %7(ptr noundef nonnull @job_mutex, ptr noundef nonnull @.str.44, i32 noundef 122) #12
  %paused = getelementptr inbounds nuw i8, ptr %job, i64 181
  %8 = load i8, ptr %paused, align 1
  %tobool17.us = trunc i8 %8 to i1
  br i1 %tobool17.us, label %qemu_lockable_auto_unlock.exit.us, label %if.then18.us

if.then18.us:                                     ; preds = %for.body.us
  tail call void @job_enter_cond_locked(ptr noundef nonnull %job, ptr noundef null) #12
  br label %qemu_lockable_auto_unlock.exit.us

qemu_lockable_auto_unlock.exit.us:                ; preds = %if.then18.us, %for.body.us
  tail call void @qemu_mutex_unlock_impl(ptr noundef nonnull @job_mutex, ptr noundef nonnull @.str.44, i32 noundef 132) #12
  br label %for.end

for.end:                                          ; preds = %qemu_lockable_auto_unlock.exit.us, %if.then6, %if.then
  ret void
}